target datalayout = "e-m:e-p270:32:32-p271:32:32-p272:64:64-i64:64-i128:128-f80:128-n8:16:32:64-S128"
target triple = "x86_64-pc-linux-gnu"

%struct.CVodeMemRec = type { ptr, double, ptr, ptr, i32, i32, double, double, ptr, i32, i32, ptr, ptr, i32, i32, ptr, i32, i32, double, double, ptr, i32, i32, i32, i32, ptr, ptr, ptr, i32, i32, ptr, ptr, ptr, i32, double, i32, i32, double, ptr, ptr, ptr, i32, ptr, ptr, i32, i32, i32, double, ptr, ptr, ptr, [13 x ptr], ptr, ptr, ptr, ptr, ptr, ptr, ptr, ptr, ptr, [13 x ptr], ptr, ptr, ptr, ptr, [13 x ptr], ptr, ptr, ptr, ptr, ptr, i32, [13 x ptr], ptr, ptr, ptr, ptr, ptr, i32, i32, double, i32, i32, i32, i32, i32, double, double, double, double, double, double, double, double, [14 x double], [6 x double], [13 x double], double, double, double, double, double, double, double, double, i32, double, double, i32, double, double, ptr, i32, i64, i32, i32, i32, double, double, double, double, double, double, double, double, double, double, double, double, i64, i32, i64, i64, i64, i64, i64, i64, i64, i64, i64, ptr, i64, i64, ptr, i64, i64, ptr, i64, i64, i64, i64, i64, i64, i32, double, double, double, i64, i64, i64, i64, i64, i64, ptr, i32, ptr, i32, ptr, i32, ptr, i32, i32, i64, i32, ptr, i32, ptr, ptr, ptr, ptr, ptr, ptr, i32, i32, ptr, ptr, ptr, ptr, ptr, i64, double, i32, i32, i64, double, double, double, i32, i32, double, i32, i32, i32, i32, i32, i32, i32, i32, i32, i32, i32, i32, i32, i32, i32, i32, ptr, i64, i32, [6 x [4 x double]], i32, i64, ptr, i32, ptr, ptr, double, double, double, ptr, ptr, ptr, double, double, i32, i32, i64, ptr, i32, ptr, i32, i32, [13 x double], ptr, ptr, ptr, i32, ptr, i32 }
%struct.CVadjMemRec = type { double, double, i32, i32, double, i32, double, ptr, i32, ptr, i32, ptr, i32, ptr, i64, i64, ptr, i64, i32, ptr, ptr, ptr, ptr, i32, i32, i32, i32, [13 x ptr], [13 x ptr], [13 x double], ptr, ptr }
%struct.CVhermiteDataMemRec = type { ptr, ptr, ptr, ptr }
%struct.CVdtpntMemRec = type { double, ptr }

; Function Attrs: nounwind uwtable
define internal i32 @CVAhermiteStorePnt(ptr noundef %0, ptr noundef %1) #0 {
  %3 = alloca i32, align 4
  %4 = alloca ptr, align 8
  %5 = alloca ptr, align 8
  %6 = alloca ptr, align 8
  %7 = alloca ptr, align 8
  %8 = alloca i32, align 4
  %9 = alloca i32, align 4
  %10 = alloca i32, align 4
  store ptr %0, ptr %4, align 8, !tbaa !11
  store ptr %1, ptr %5, align 8, !tbaa !37
  call void @llvm.lifetime.start.p0(i64 8, ptr %6) #6
  call void @llvm.lifetime.start.p0(i64 8, ptr %7) #6
  call void @llvm.lifetime.start.p0(i64 4, ptr %8) #6
  call void @llvm.lifetime.start.p0(i64 4, ptr %9) #6
  %11 = load ptr, ptr %4, align 8, !tbaa !11
  %12 = getelementptr inbounds nuw %struct.CVodeMemRec, ptr %11, i32 0, i32 248
  %13 = load ptr, ptr %12, align 8, !tbaa !15
  store ptr %13, ptr %6, align 8, !tbaa !13
  %14 = load ptr, ptr %5, align 8, !tbaa !37
  %15 = getelementptr inbounds nuw %struct.CVdtpntMemRec, ptr %14, i32 0, i32 1
  %16 = load ptr, ptr %15, align 8, !tbaa !67
  store ptr %16, ptr %7, align 8, !tbaa !60
  %17 = load ptr, ptr %4, align 8, !tbaa !11
  %18 = getelementptr inbounds nuw %struct.CVodeMemRec, ptr %17, i32 0, i32 51
  %19 = getelementptr inbounds [13 x ptr], ptr %18, i64 0, i64 0
  %20 = load ptr, ptr %19, align 8, !tbaa !70
  %21 = load ptr, ptr %7, align 8, !tbaa !60
  %22 = getelementptr inbounds nuw %struct.CVhermiteDataMemRec, ptr %21, i32 0, i32 0
  %23 = load ptr, ptr %22, align 8, !tbaa !62
  call void @N_VScale(double noundef 1.000000e+00, ptr noundef %20, ptr noundef %23)
  %24 = load ptr, ptr %6, align 8, !tbaa !13
  %25 = getelementptr inbounds nuw %struct.CVadjMemRec, ptr %24, i32 0, i32 25
  %26 = load i32, ptr %25, align 8, !tbaa !44
  %27 = icmp ne i32 %26, 0
  br i1 %27, label %28, label %64

28:                                               ; preds = %2
  store i32 0, ptr %8, align 4, !tbaa !9
  br label %29

29:                                               ; preds = %42, %28
  %30 = load i32, ptr %8, align 4, !tbaa !9
  %31 = load ptr, ptr %4, align 8, !tbaa !11
  %32 = getelementptr inbounds nuw %struct.CVodeMemRec, ptr %31, i32 0, i32 23
  %33 = load i32, ptr %32, align 8, !tbaa !57
  %34 = icmp slt i32 %30, %33
  br i1 %34, label %35, label %45

35:                                               ; preds = %29
  %36 = load ptr, ptr %4, align 8, !tbaa !11
  %37 = getelementptr inbounds nuw %struct.CVodeMemRec, ptr %36, i32 0, i32 244
  %38 = load ptr, ptr %37, align 8, !tbaa !72
  %39 = load i32, ptr %8, align 4, !tbaa !9
  %40 = sext i32 %39 to i64
  %41 = getelementptr inbounds double, ptr %38, i64 %40
  store double 1.000000e+00, ptr %41, align 8, !tbaa !69
  br label %42

42:                                               ; preds = %35
  %43 = load i32, ptr %8, align 4, !tbaa !9
  %44 = add nsw i32 %43, 1
  store i32 %44, ptr %8, align 4, !tbaa !9
  br label %29

45:                                               ; preds = %29
  %46 = load ptr, ptr %4, align 8, !tbaa !11
  %47 = getelementptr inbounds nuw %struct.CVodeMemRec, ptr %46, i32 0, i32 23
  %48 = load i32, ptr %47, align 8, !tbaa !57
  %49 = load ptr, ptr %4, align 8, !tbaa !11
  %50 = getelementptr inbounds nuw %struct.CVodeMemRec, ptr %49, i32 0, i32 244
  %51 = load ptr, ptr %50, align 8, !tbaa !72
  %52 = load ptr, ptr %4, align 8, !tbaa !11
  %53 = getelementptr inbounds nuw %struct.CVodeMemRec, ptr %52, i32 0, i32 66
  %54 = getelementptr inbounds [13 x ptr], ptr %53, i64 0, i64 0
  %55 = load ptr, ptr %54, align 8, !tbaa !71
  %56 = load ptr, ptr %7, align 8, !tbaa !60
  %57 = getelementptr inbounds nuw %struct.CVhermiteDataMemRec, ptr %56, i32 0, i32 2
  %58 = load ptr, ptr %57, align 8, !tbaa !65
  %59 = call i32 @N_VScaleVectorArray(i32 noundef %48, ptr noundef %51, ptr noundef %55, ptr noundef %58)
  store i32 %59, ptr %9, align 4, !tbaa !9
  %60 = load i32, ptr %9, align 4, !tbaa !9
  %61 = icmp ne i32 %60, 0
  br i1 %61, label %62, label %63

62:                                               ; preds = %45
  store i32 -28, ptr %3, align 4
  store i32 1, ptr %10, align 4
  br label %173

63:                                               ; preds = %45
  br label %64

64:                                               ; preds = %63, %2
  %65 = load ptr, ptr %4, align 8, !tbaa !11
  %66 = getelementptr inbounds nuw %struct.CVodeMemRec, ptr %65, i32 0, i32 132
  %67 = load i64, ptr %66, align 8, !tbaa !74
  %68 = icmp eq i64 %67, 0
  br i1 %68, label %69, label %115

69:                                               ; preds = %64
  %70 = load ptr, ptr %4, align 8, !tbaa !11
  %71 = getelementptr inbounds nuw %struct.CVodeMemRec, ptr %70, i32 0, i32 2
  %72 = load ptr, ptr %71, align 8, !tbaa !75
  %73 = load ptr, ptr %4, align 8, !tbaa !11
  %74 = getelementptr inbounds nuw %struct.CVodeMemRec, ptr %73, i32 0, i32 93
  %75 = load double, ptr %74, align 8, !tbaa !76
  %76 = load ptr, ptr %7, align 8, !tbaa !60
  %77 = getelementptr inbounds nuw %struct.CVhermiteDataMemRec, ptr %76, i32 0, i32 0
  %78 = load ptr, ptr %77, align 8, !tbaa !62
  %79 = load ptr, ptr %7, align 8, !tbaa !60
  %80 = getelementptr inbounds nuw %struct.CVhermiteDataMemRec, ptr %79, i32 0, i32 1
  %81 = load ptr, ptr %80, align 8, !tbaa !64
  %82 = load ptr, ptr %4, align 8, !tbaa !11
  %83 = getelementptr inbounds nuw %struct.CVodeMemRec, ptr %82, i32 0, i32 3
  %84 = load ptr, ptr %83, align 8, !tbaa !77
  %85 = call i32 %72(double noundef %75, ptr noundef %78, ptr noundef %81, ptr noundef %84)
  %86 = load ptr, ptr %6, align 8, !tbaa !13
  %87 = getelementptr inbounds nuw %struct.CVadjMemRec, ptr %86, i32 0, i32 25
  %88 = load i32, ptr %87, align 8, !tbaa !44
  %89 = icmp ne i32 %88, 0
  br i1 %89, label %90, label %114

90:                                               ; preds = %69
  %91 = load ptr, ptr %4, align 8, !tbaa !11
  %92 = load ptr, ptr %4, align 8, !tbaa !11
  %93 = getelementptr inbounds nuw %struct.CVodeMemRec, ptr %92, i32 0, i32 93
  %94 = load double, ptr %93, align 8, !tbaa !76
  %95 = load ptr, ptr %7, align 8, !tbaa !60
  %96 = getelementptr inbounds nuw %struct.CVhermiteDataMemRec, ptr %95, i32 0, i32 0
  %97 = load ptr, ptr %96, align 8, !tbaa !62
  %98 = load ptr, ptr %7, align 8, !tbaa !60
  %99 = getelementptr inbounds nuw %struct.CVhermiteDataMemRec, ptr %98, i32 0, i32 1
  %100 = load ptr, ptr %99, align 8, !tbaa !64
  %101 = load ptr, ptr %7, align 8, !tbaa !60
  %102 = getelementptr inbounds nuw %struct.CVhermiteDataMemRec, ptr %101, i32 0, i32 2
  %103 = load ptr, ptr %102, align 8, !tbaa !65
  %104 = load ptr, ptr %7, align 8, !tbaa !60
  %105 = getelementptr inbounds nuw %struct.CVhermiteDataMemRec, ptr %104, i32 0, i32 3
  %106 = load ptr, ptr %105, align 8, !tbaa !66
  %107 = load ptr, ptr %4, align 8, !tbaa !11
  %108 = getelementptr inbounds nuw %struct.CVodeMemRec, ptr %107, i32 0, i32 55
  %109 = load ptr, ptr %108, align 8, !tbaa !55
  %110 = load ptr, ptr %4, align 8, !tbaa !11
  %111 = getelementptr inbounds nuw %struct.CVodeMemRec, ptr %110, i32 0, i32 56
  %112 = load ptr, ptr %111, align 8, !tbaa !78
  %113 = call i32 @cvSensRhsWrapper(ptr noundef %91, double noundef %94, ptr noundef %97, ptr noundef %100, ptr noundef %103, ptr noundef %106, ptr noundef %109, ptr noundef %112)
  br label %114

114:                                              ; preds = %90, %69
  br label %172

115:                                              ; preds = %64
  %116 = load ptr, ptr %4, align 8, !tbaa !11
  %117 = getelementptr inbounds nuw %struct.CVodeMemRec, ptr %116, i32 0, i32 88
  %118 = load double, ptr %117, align 8, !tbaa !79
  %119 = fdiv double 1.000000e+00, %118
  %120 = load ptr, ptr %4, align 8, !tbaa !11
  %121 = getelementptr inbounds nuw %struct.CVodeMemRec, ptr %120, i32 0, i32 51
  %122 = getelementptr inbounds [13 x ptr], ptr %121, i64 0, i64 1
  %123 = load ptr, ptr %122, align 8, !tbaa !70
  %124 = load ptr, ptr %7, align 8, !tbaa !60
  %125 = getelementptr inbounds nuw %struct.CVhermiteDataMemRec, ptr %124, i32 0, i32 1
  %126 = load ptr, ptr %125, align 8, !tbaa !64
  call void @N_VScale(double noundef %119, ptr noundef %123, ptr noundef %126)
  %127 = load ptr, ptr %6, align 8, !tbaa !13
  %128 = getelementptr inbounds nuw %struct.CVadjMemRec, ptr %127, i32 0, i32 25
  %129 = load i32, ptr %128, align 8, !tbaa !44
  %130 = icmp ne i32 %129, 0
  br i1 %130, label %131, label %171

131:                                              ; preds = %115
  store i32 0, ptr %8, align 4, !tbaa !9
  br label %132

132:                                              ; preds = %149, %131
  %133 = load i32, ptr %8, align 4, !tbaa !9
  %134 = load ptr, ptr %4, align 8, !tbaa !11
  %135 = getelementptr inbounds nuw %struct.CVodeMemRec, ptr %134, i32 0, i32 23
  %136 = load i32, ptr %135, align 8, !tbaa !57
  %137 = icmp slt i32 %133, %136
  br i1 %137, label %138, label %152

138:                                              ; preds = %132
  %139 = load ptr, ptr %4, align 8, !tbaa !11
  %140 = getelementptr inbounds nuw %struct.CVodeMemRec, ptr %139, i32 0, i32 88
  %141 = load double, ptr %140, align 8, !tbaa !79
  %142 = fdiv double 1.000000e+00, %141
  %143 = load ptr, ptr %4, align 8, !tbaa !11
  %144 = getelementptr inbounds nuw %struct.CVodeMemRec, ptr %143, i32 0, i32 244
  %145 = load ptr, ptr %144, align 8, !tbaa !72
  %146 = load i32, ptr %8, align 4, !tbaa !9
  %147 = sext i32 %146 to i64
  %148 = getelementptr inbounds double, ptr %145, i64 %147
  store double %142, ptr %148, align 8, !tbaa !69
  br label %149

149:                                              ; preds = %138
  %150 = load i32, ptr %8, align 4, !tbaa !9
  %151 = add nsw i32 %150, 1
  store i32 %151, ptr %8, align 4, !tbaa !9
  br label %132

152:                                              ; preds = %132
  %153 = load ptr, ptr %4, align 8, !tbaa !11
  %154 = getelementptr inbounds nuw %struct.CVodeMemRec, ptr %153, i32 0, i32 23
  %155 = load i32, ptr %154, align 8, !tbaa !57
  %156 = load ptr, ptr %4, align 8, !tbaa !11
  %157 = getelementptr inbounds nuw %struct.CVodeMemRec, ptr %156, i32 0, i32 244
  %158 = load ptr, ptr %157, align 8, !tbaa !72
  %159 = load ptr, ptr %4, align 8, !tbaa !11
  %160 = getelementptr inbounds nuw %struct.CVodeMemRec, ptr %159, i32 0, i32 66
  %161 = getelementptr inbounds [13 x ptr], ptr %160, i64 0, i64 1
  %162 = load ptr, ptr %161, align 8, !tbaa !71
  %163 = load ptr, ptr %7, align 8, !tbaa !60
  %164 = getelementptr inbounds nuw %struct.CVhermiteDataMemRec, ptr %163, i32 0, i32 3
  %165 = load ptr, ptr %164, align 8, !tbaa !66
  %166 = call i32 @N_VScaleVectorArray(i32 noundef %155, ptr noundef %158, ptr noundef %162, ptr noundef %165)
  store i32 %166, ptr %9, align 4, !tbaa !9
  %167 = load i32, ptr %9, align 4, !tbaa !9
  %168 = icmp ne i32 %167, 0
  br i1 %168, label %169, label %170

169:                                              ; preds = %152
  store i32 -28, ptr %3, align 4
  store i32 1, ptr %10, align 4
  br label %173

170:                                              ; preds = %152
  br label %171

171:                                              ; preds = %170, %115
  br label %172

172:                                              ; preds = %171, %114
  store i32 0, ptr %3, align 4
  store i32 1, ptr %10, align 4
  br label %173

173:                                              ; preds = %172, %169, %62
  call void @llvm.lifetime.end.p0(i64 4, ptr %9) #6
  call void @llvm.lifetime.end.p0(i64 4, ptr %8) #6
  call void @llvm.lifetime.end.p0(i64 8, ptr %7) #6
  call void @llvm.lifetime.end.p0(i64 8, ptr %6) #6
  %174 = load i32, ptr %3, align 4
  ret i32 %174
}