; Function Attrs: nounwind uwtable
define internal range(i32 -28, 1) i32 @CVAhermiteStorePnt(ptr noundef %0, ptr noundef readonly captures(none) %1) #0 {
  %3 = getelementptr inbounds nuw i8, ptr %0, i64 2672
  %4 = load ptr, ptr %3, align 8, !tbaa !3
  %5 = getelementptr inbounds nuw i8, ptr %1, i64 8
  %6 = load ptr, ptr %5, align 8, !tbaa !58
  %7 = getelementptr inbounds nuw i8, ptr %0, i64 336
  %8 = load ptr, ptr %7, align 8, !tbaa !68
  %9 = load ptr, ptr %6, align 8, !tbaa !53
  tail call void @N_VScale(double noundef 1.000000e+00, ptr noundef %8, ptr noundef %9) #9
  %10 = getelementptr inbounds nuw i8, ptr %4, i64 184
  %11 = load i32, ptr %10, align 8, !tbaa !38
  %.not = icmp eq i32 %11, 0
  br i1 %.not, label %24, label %.preheader52

.preheader52:                                     ; preds = %2
  %12 = getelementptr inbounds nuw i8, ptr %0, i64 144
  %13 = load i32, ptr %12, align 8, !tbaa !51
  %14 = icmp sgt i32 %13, 0
  %15 = getelementptr inbounds nuw i8, ptr %0, i64 2640
  %16 = load ptr, ptr %15, align 8, !tbaa !66
  br i1 %14, label %.lr.ph, label %._crit_edge

.lr.ph:                                           ; preds = %.preheader52
  %wide.trip.count = zext nneg i32 %13 to i64
  br label %17

17:                                               ; preds = %.lr.ph, %17
  %indvars.iv = phi i64 [ 0, %.lr.ph ], [ %indvars.iv.next, %17 ]
  %18 = getelementptr inbounds nuw double, ptr %16, i64 %indvars.iv
  store double 1.000000e+00, ptr %18, align 8, !tbaa !67
  %indvars.iv.next = add nuw nsw i64 %indvars.iv, 1
  %exitcond.not = icmp eq i64 %indvars.iv.next, %wide.trip.count
  br i1 %exitcond.not, label %._crit_edge, label %17

._crit_edge:                                      ; preds = %17, %.preheader52
  %19 = getelementptr inbounds nuw i8, ptr %0, i64 648
  %20 = load ptr, ptr %19, align 8, !tbaa !69
  %21 = getelementptr inbounds nuw i8, ptr %6, i64 16
  %22 = load ptr, ptr %21, align 8, !tbaa !56
  %23 = tail call i32 @N_VScaleVectorArray(i32 noundef %13, ptr noundef %16, ptr noundef %20, ptr noundef %22) #9
  %.not48 = icmp eq i32 %23, 0
  br i1 %.not48, label %24, label %75

24:                                               ; preds = %._crit_edge, %2
  %25 = getelementptr inbounds nuw i8, ptr %0, i64 1576
  %26 = load i64, ptr %25, align 8, !tbaa !70
  %27 = icmp eq i64 %26, 0
  %28 = getelementptr inbounds nuw i8, ptr %6, i64 8
  %29 = load ptr, ptr %28, align 8, !tbaa !55
  br i1 %27, label %30, label %53

30:                                               ; preds = %24
  %31 = getelementptr inbounds nuw i8, ptr %0, i64 16
  %32 = load ptr, ptr %31, align 8, !tbaa !71
  %33 = getelementptr inbounds nuw i8, ptr %0, i64 1032
  %34 = load double, ptr %33, align 8, !tbaa !72
  %35 = load ptr, ptr %6, align 8, !tbaa !53
  %36 = getelementptr inbounds nuw i8, ptr %0, i64 24
  %37 = load ptr, ptr %36, align 8, !tbaa !73
  %38 = tail call i32 %32(double noundef %34, ptr noundef %35, ptr noundef %29, ptr noundef %37) #9
  %39 = load i32, ptr %10, align 8, !tbaa !38
  %.not51 = icmp eq i32 %39, 0
  br i1 %.not51, label %74, label %40

40:                                               ; preds = %30
  %41 = load double, ptr %33, align 8, !tbaa !72
  %42 = load ptr, ptr %6, align 8, !tbaa !53
  %43 = load ptr, ptr %28, align 8, !tbaa !55
  %44 = getelementptr inbounds nuw i8, ptr %6, i64 16
  %45 = load ptr, ptr %44, align 8, !tbaa !56
  %46 = getelementptr inbounds nuw i8, ptr %6, i64 24
  %47 = load ptr, ptr %46, align 8, !tbaa !57
  %48 = getelementptr inbounds nuw i8, ptr %0, i64 464
  %49 = load ptr, ptr %48, align 8, !tbaa !49
  %50 = getelementptr inbounds nuw i8, ptr %0, i64 472
  %51 = load ptr, ptr %50, align 8, !tbaa !74
  %52 = tail call i32 @cvSensRhsWrapper(ptr noundef nonnull %0, double noundef %41, ptr noundef %42, ptr noundef %43, ptr noundef %45, ptr noundef %47, ptr noundef %49, ptr noundef %51) #9
  br label %74

53:                                               ; preds = %24
  %54 = getelementptr inbounds nuw i8, ptr %0, i64 992
  %55 = load double, ptr %54, align 8, !tbaa !75
  %56 = fdiv double 1.000000e+00, %55
  %57 = getelementptr inbounds nuw i8, ptr %0, i64 344
  %58 = load ptr, ptr %57, align 8, !tbaa !68
  tail call void @N_VScale(double noundef %56, ptr noundef %58, ptr noundef %29) #9
  %59 = load i32, ptr %10, align 8, !tbaa !38
  %.not49 = icmp eq i32 %59, 0
  br i1 %.not49, label %74, label %.preheader

.preheader:                                       ; preds = %53
  %60 = getelementptr inbounds nuw i8, ptr %0, i64 144
  %61 = load i32, ptr %60, align 8, !tbaa !51
  %62 = icmp sgt i32 %61, 0
  %63 = getelementptr inbounds nuw i8, ptr %0, i64 2640
  %64 = load ptr, ptr %63, align 8, !tbaa !66
  br i1 %62, label %.lr.ph56, label %._crit_edge57

.lr.ph56:                                         ; preds = %.preheader
  %wide.trip.count63 = zext nneg i32 %61 to i64
  br label %65

65:                                               ; preds = %.lr.ph56, %65
  %indvars.iv60 = phi i64 [ 0, %.lr.ph56 ], [ %indvars.iv.next61, %65 ]
  %66 = load double, ptr %54, align 8, !tbaa !75
  %67 = fdiv double 1.000000e+00, %66
  %68 = getelementptr inbounds nuw double, ptr %64, i64 %indvars.iv60
  store double %67, ptr %68, align 8, !tbaa !67
  %indvars.iv.next61 = add nuw nsw i64 %indvars.iv60, 1
  %exitcond64.not = icmp eq i64 %indvars.iv.next61, %wide.trip.count63
  br i1 %exitcond64.not, label %._crit_edge57, label %65

._crit_edge57:                                    ; preds = %65, %.preheader
  %69 = getelementptr inbounds nuw i8, ptr %0, i64 656
  %70 = load ptr, ptr %69, align 8, !tbaa !69
  %71 = getelementptr inbounds nuw i8, ptr %6, i64 24
  %72 = load ptr, ptr %71, align 8, !tbaa !57
  %73 = tail call i32 @N_VScaleVectorArray(i32 noundef %61, ptr noundef %64, ptr noundef %70, ptr noundef %72) #9
  %.not50 = icmp eq i32 %73, 0
  br i1 %.not50, label %74, label %75

74:                                               ; preds = %53, %._crit_edge57, %30, %40
  br label %75

75:                                               ; preds = %._crit_edge57, %._crit_edge, %74
  %.045 = phi i32 [ 0, %74 ], [ -28, %._crit_edge ], [ -28, %._crit_edge57 ]
  ret i32 %.045
}